target datalayout = "e-m:e-p270:32:32-p271:32:32-p272:64:64-i64:64-i128:128-f80:128-n8:16:32:64-S128"
target triple = "x86_64-pc-linux-gnu"

%"class.rocksdb::Slice" = type { ptr, i64 }
%"struct.rocksdb::WriteBatchIndexEntry" = type { i64, i32, i32, i8, i8, i64, i64, ptr }
%"class.rocksdb::WBWIIteratorImpl" = type <{ %"class.rocksdb::WBWIIterator", i32, [4 x i8], %"class.rocksdb::SkipList<rocksdb::WriteBatchIndexEntry *, const rocksdb::WriteBatchEntryComparator &>::Iterator", ptr, ptr, ptr, ptr, i8, [7 x i8] }>
%"class.rocksdb::WBWIIterator" = type { ptr }
%"class.rocksdb::SkipList<rocksdb::WriteBatchIndexEntry *, const rocksdb::WriteBatchEntryComparator &>::Iterator" = type { ptr, ptr }
%"struct.rocksdb::WriteEntry" = type { i32, %"class.rocksdb::Slice", %"class.rocksdb::Slice" }
%"class.rocksdb::WriteBatchEntryComparator" = type { ptr, %"class.std::vector.47", ptr }
%"class.std::vector.47" = type { %"struct.std::_Vector_base.48" }
%"struct.std::_Vector_base.48" = type { %"struct.std::_Vector_base<const rocksdb::Comparator *, std::allocator<const rocksdb::Comparator *>>::_Vector_impl" }
%"struct.std::_Vector_base<const rocksdb::Comparator *, std::allocator<const rocksdb::Comparator *>>::_Vector_impl" = type { %"struct.std::_Vector_base<const rocksdb::Comparator *, std::allocator<const rocksdb::Comparator *>>::_Vector_impl_data" }
%"struct.std::_Vector_base<const rocksdb::Comparator *, std::allocator<const rocksdb::Comparator *>>::_Vector_impl_data" = type { ptr, ptr, ptr }
%"struct.rocksdb::SkipList<rocksdb::WriteBatchIndexEntry *, const rocksdb::WriteBatchEntryComparator &>::Node" = type { ptr, [1 x %"struct.std::atomic.151"] }
%"struct.std::atomic.151" = type { %"struct.std::__atomic_base.152" }
%"struct.std::__atomic_base.152" = type { ptr }

; Function Attrs: inlinehint mustprogress nounwind uwtable
define linkonce_odr noundef nonnull align 8 dereferenceable(8) ptr @_ZNK7rocksdb8SkipListIPNS_20WriteBatchIndexEntryERKNS_25WriteBatchEntryComparatorEE8Iterator3keyEv(ptr noundef nonnull align 8 dereferenceable(16) %0) #1 comdat align 2 {
  %2 = alloca ptr, align 8
  store ptr %0, ptr %2, align 8, !tbaa !283
  %3 = load ptr, ptr %2, align 8
  %4 = getelementptr inbounds nuw %"class.rocksdb::SkipList<rocksdb::WriteBatchIndexEntry *, const rocksdb::WriteBatchEntryComparator &>::Iterator", ptr %3, i32 0, i32 1
  %5 = load ptr, ptr %4, align 8, !tbaa !285
  %6 = getelementptr inbounds nuw %"struct.rocksdb::SkipList<rocksdb::WriteBatchIndexEntry *, const rocksdb::WriteBatchEntryComparator &>::Node", ptr %5, i32 0, i32 0
  ret ptr %6
}

; Function Attrs: inlinehint mustprogress nounwind uwtable
define linkonce_odr noundef zeroext i1 @_ZNK7rocksdb8SkipListIPNS_20WriteBatchIndexEntryERKNS_25WriteBatchEntryComparatorEE8Iterator5ValidEv(ptr noundef nonnull align 8 dereferenceable(16) %0) #1 comdat align 2 {
  %2 = alloca ptr, align 8
  store ptr %0, ptr %2, align 8, !tbaa !283
  %3 = load ptr, ptr %2, align 8
  %4 = getelementptr inbounds nuw %"class.rocksdb::SkipList<rocksdb::WriteBatchIndexEntry *, const rocksdb::WriteBatchEntryComparator &>::Iterator", ptr %3, i32 0, i32 1
  %5 = load ptr, ptr %4, align 8, !tbaa !285
  %6 = icmp ne ptr %5, null
  ret i1 %6
}

; Function Attrs: mustprogress nounwind uwtable
define linkonce_odr noundef nonnull align 8 dereferenceable(8) ptr @_ZNKSt6vectorIPKN7rocksdb10ComparatorESaIS3_EEixEm(ptr noundef nonnull align 8 dereferenceable(24) %0, i64 noundef %1) #3 comdat align 2 {
  %3 = alloca ptr, align 8
  %4 = alloca i64, align 8
  store ptr %0, ptr %3, align 8, !tbaa !279
  store i64 %1, ptr %4, align 8, !tbaa !4
  %5 = load ptr, ptr %3, align 8
  %6 = getelementptr inbounds nuw %"struct.std::_Vector_base.48", ptr %5, i32 0, i32 0
  %7 = getelementptr inbounds nuw %"struct.std::_Vector_base<const rocksdb::Comparator *, std::allocator<const rocksdb::Comparator *>>::_Vector_impl_data", ptr %6, i32 0, i32 0
  %8 = load ptr, ptr %7, align 8, !tbaa !282
  %9 = load i64, ptr %4, align 8, !tbaa !4
  %10 = getelementptr inbounds nuw ptr, ptr %8, i64 %9
  ret ptr %10
}

; Function Attrs: mustprogress nounwind uwtable
define linkonce_odr noundef i64 @_ZNKSt6vectorIPKN7rocksdb10ComparatorESaIS3_EE4sizeEv(ptr noundef nonnull align 8 dereferenceable(24) %0) #3 comdat align 2 {
  %2 = alloca ptr, align 8
  store ptr %0, ptr %2, align 8, !tbaa !279
  %3 = load ptr, ptr %2, align 8
  %4 = getelementptr inbounds nuw %"struct.std::_Vector_base.48", ptr %3, i32 0, i32 0
  %5 = getelementptr inbounds nuw %"struct.std::_Vector_base<const rocksdb::Comparator *, std::allocator<const rocksdb::Comparator *>>::_Vector_impl_data", ptr %4, i32 0, i32 1
  %6 = load ptr, ptr %5, align 8, !tbaa !281
  %7 = getelementptr inbounds nuw %"struct.std::_Vector_base.48", ptr %3, i32 0, i32 0
  %8 = getelementptr inbounds nuw %"struct.std::_Vector_base<const rocksdb::Comparator *, std::allocator<const rocksdb::Comparator *>>::_Vector_impl_data", ptr %7, i32 0, i32 0
  %9 = load ptr, ptr %8, align 8, !tbaa !282
  %10 = ptrtoint ptr %6 to i64
  %11 = ptrtoint ptr %9 to i64
  %12 = sub i64 %10, %11
  %13 = sdiv exact i64 %12, 8
  ret i64 %13
}

; Function Attrs: mustprogress uwtable
define linkonce_odr noundef zeroext i1 @_ZNK7rocksdb16WBWIIteratorImpl27ValidRegardlessOfBoundLimitEv(ptr noundef nonnull align 8 dereferenceable(72) %0) #5 comdat align 2 {
  %2 = alloca i1, align 1
  %3 = alloca ptr, align 8
  %4 = alloca ptr, align 8
  store ptr %0, ptr %3, align 8, !tbaa !58
  %5 = load ptr, ptr %3, align 8
  %6 = getelementptr inbounds nuw %"class.rocksdb::WBWIIteratorImpl", ptr %5, i32 0, i32 3
  %7 = call noundef zeroext i1 @_ZNK7rocksdb8SkipListIPNS_20WriteBatchIndexEntryERKNS_25WriteBatchEntryComparatorEE8Iterator5ValidEv(ptr noundef nonnull align 8 dereferenceable(16) %6)
  br i1 %7, label %9, label %8

8:                                                ; preds = %1
  store i1 false, ptr %2, align 1
  br label %24

9:                                                ; preds = %1
  call void @llvm.lifetime.start.p0(i64 8, ptr %4) #4
  %10 = getelementptr inbounds nuw %"class.rocksdb::WBWIIteratorImpl", ptr %5, i32 0, i32 3
  %11 = call noundef nonnull align 8 dereferenceable(8) ptr @_ZNK7rocksdb8SkipListIPNS_20WriteBatchIndexEntryERKNS_25WriteBatchEntryComparatorEE8Iterator3keyEv(ptr noundef nonnull align 8 dereferenceable(16) %10)
  %12 = load ptr, ptr %11, align 8, !tbaa !166
  store ptr %12, ptr %4, align 8, !tbaa !166
  %13 = load ptr, ptr %4, align 8, !tbaa !166
  %14 = icmp ne ptr %13, null
  br i1 %14, label %15, label %22

15:                                               ; preds = %9
  %16 = load ptr, ptr %4, align 8, !tbaa !166
  %17 = getelementptr inbounds nuw %"struct.rocksdb::WriteBatchIndexEntry", ptr %16, i32 0, i32 1
  %18 = load i32, ptr %17, align 8, !tbaa !274
  %19 = getelementptr inbounds nuw %"class.rocksdb::WBWIIteratorImpl", ptr %5, i32 0, i32 1
  %20 = load i32, ptr %19, align 8, !tbaa !165
  %21 = icmp eq i32 %18, %20
  br label %22

22:                                               ; preds = %15, %9
  %23 = phi i1 [ false, %9 ], [ %21, %15 ]
  store i1 %23, ptr %2, align 1
  call void @llvm.lifetime.end.p0(i64 8, ptr %4) #4
  br label %24

24:                                               ; preds = %22, %8
  %25 = load i1, ptr %2, align 1
  ret i1 %25
}

; Function Attrs: mustprogress uwtable
define noundef i32 @_ZNK7rocksdb25WriteBatchEntryComparator10CompareKeyEjRKNS_5SliceES3_(ptr noundef nonnull align 8 dereferenceable(40) %0, i32 noundef %1, ptr noundef nonnull align 8 dereferenceable(16) %2, ptr noundef nonnull align 8 dereferenceable(16) %3) #5 align 2 {
  %5 = alloca i32, align 4
  %6 = alloca ptr, align 8
  %7 = alloca i32, align 4
  %8 = alloca ptr, align 8
  %9 = alloca ptr, align 8
  store ptr %0, ptr %6, align 8, !tbaa !262
  store i32 %1, ptr %7, align 4, !tbaa !174
  store ptr %2, ptr %8, align 8, !tbaa !10
  store ptr %3, ptr %9, align 8, !tbaa !10
  %10 = load ptr, ptr %6, align 8
  %11 = load i32, ptr %7, align 4, !tbaa !174
  %12 = zext i32 %11 to i64
  %13 = getelementptr inbounds nuw %"class.rocksdb::WriteBatchEntryComparator", ptr %10, i32 0, i32 1
  %14 = call noundef i64 @_ZNKSt6vectorIPKN7rocksdb10ComparatorESaIS3_EE4sizeEv(ptr noundef nonnull align 8 dereferenceable(24) %13) #4
  %15 = icmp ult i64 %12, %14
  br i1 %15, label %16, label %35

16:                                               ; preds = %4
  %17 = getelementptr inbounds nuw %"class.rocksdb::WriteBatchEntryComparator", ptr %10, i32 0, i32 1
  %18 = load i32, ptr %7, align 4, !tbaa !174
  %19 = zext i32 %18 to i64
  %20 = call noundef nonnull align 8 dereferenceable(8) ptr @_ZNKSt6vectorIPKN7rocksdb10ComparatorESaIS3_EEixEm(ptr noundef nonnull align 8 dereferenceable(24) %17, i64 noundef %19) #4
  %21 = load ptr, ptr %20, align 8, !tbaa !60
  %22 = icmp ne ptr %21, null
  br i1 %22, label %23, label %35

23:                                               ; preds = %16
  %24 = getelementptr inbounds nuw %"class.rocksdb::WriteBatchEntryComparator", ptr %10, i32 0, i32 1
  %25 = load i32, ptr %7, align 4, !tbaa !174
  %26 = zext i32 %25 to i64
  %27 = call noundef nonnull align 8 dereferenceable(8) ptr @_ZNKSt6vectorIPKN7rocksdb10ComparatorESaIS3_EEixEm(ptr noundef nonnull align 8 dereferenceable(24) %24, i64 noundef %26) #4
  %28 = load ptr, ptr %27, align 8, !tbaa !60
  %29 = load ptr, ptr %8, align 8, !tbaa !10
  %30 = load ptr, ptr %9, align 8, !tbaa !10
  %31 = load ptr, ptr %28, align 8, !tbaa !64
  %32 = getelementptr inbounds ptr, ptr %31, i64 29
  %33 = load ptr, ptr %32, align 8
  %34 = call noundef i32 %33(ptr noundef nonnull align 8 dereferenceable(48) %28, ptr noundef nonnull align 8 dereferenceable(16) %29, i1 noundef zeroext false, ptr noundef nonnull align 8 dereferenceable(16) %30, i1 noundef zeroext false)
  store i32 %34, ptr %5, align 4
  br label %44

35:                                               ; preds = %16, %4
  %36 = getelementptr inbounds nuw %"class.rocksdb::WriteBatchEntryComparator", ptr %10, i32 0, i32 0
  %37 = load ptr, ptr %36, align 8, !tbaa !263
  %38 = load ptr, ptr %8, align 8, !tbaa !10
  %39 = load ptr, ptr %9, align 8, !tbaa !10
  %40 = load ptr, ptr %37, align 8, !tbaa !64
  %41 = getelementptr inbounds ptr, ptr %40, i64 29
  %42 = load ptr, ptr %41, align 8
  %43 = call noundef i32 %42(ptr noundef nonnull align 8 dereferenceable(48) %37, ptr noundef nonnull align 8 dereferenceable(16) %38, i1 noundef zeroext false, ptr noundef nonnull align 8 dereferenceable(16) %39, i1 noundef zeroext false)
  store i32 %43, ptr %5, align 4
  br label %44

44:                                               ; preds = %35, %23
  %45 = load i32, ptr %5, align 4
  ret i32 %45
}

; Function Attrs: mustprogress uwtable
define linkonce_odr noundef zeroext i1 @_ZNK7rocksdb16WBWIIteratorImpl5ValidEv(ptr noundef nonnull align 8 dereferenceable(72) %0) unnamed_addr #5 comdat align 2 {
  %2 = alloca ptr, align 8
  store ptr %0, ptr %2, align 8, !tbaa !58
  %3 = load ptr, ptr %2, align 8
  %4 = getelementptr inbounds nuw %"class.rocksdb::WBWIIteratorImpl", ptr %3, i32 0, i32 8
  %5 = load i8, ptr %4, align 8, !tbaa !168, !range !131, !noundef !132
  %6 = trunc i8 %5 to i1
  br i1 %6, label %9, label %7

7:                                                ; preds = %1
  %8 = call noundef zeroext i1 @_ZNK7rocksdb16WBWIIteratorImpl27ValidRegardlessOfBoundLimitEv(ptr noundef nonnull align 8 dereferenceable(72) %3)
  br label %9

9:                                                ; preds = %7, %1
  %10 = phi i1 [ false, %1 ], [ %8, %7 ]
  ret i1 %10
}

; Function Attrs: mustprogress uwtable
define noundef zeroext i1 @_ZN7rocksdb16WBWIIteratorImpl10MatchesKeyEjRKNS_5SliceE(ptr noundef nonnull align 8 dereferenceable(72) %0, i32 noundef %1, ptr noundef nonnull align 8 dereferenceable(16) %2) #5 align 2 {
  %4 = alloca i1, align 1
  %5 = alloca ptr, align 8
  %6 = alloca i32, align 4
  %7 = alloca ptr, align 8
  %8 = alloca %"struct.rocksdb::WriteEntry", align 8
  store ptr %0, ptr %5, align 8, !tbaa !58
  store i32 %1, ptr %6, align 4, !tbaa !174
  store ptr %2, ptr %7, align 8, !tbaa !10
  %9 = load ptr, ptr %5, align 8
  %10 = call noundef zeroext i1 @_ZNK7rocksdb16WBWIIteratorImpl5ValidEv(ptr noundef nonnull align 8 dereferenceable(72) %9)
  br i1 %10, label %11, label %19

11:                                               ; preds = %3
  %12 = getelementptr inbounds nuw %"class.rocksdb::WBWIIteratorImpl", ptr %9, i32 0, i32 5
  %13 = load ptr, ptr %12, align 8, !tbaa !192
  %14 = load i32, ptr %6, align 4, !tbaa !174
  %15 = load ptr, ptr %7, align 8, !tbaa !10
  call void @llvm.lifetime.start.p0(i64 40, ptr %8) #4
  call void @_ZNK7rocksdb16WBWIIteratorImpl5EntryEv(ptr dead_on_unwind writable sret(%"struct.rocksdb::WriteEntry") align 8 %8, ptr noundef nonnull align 8 dereferenceable(72) %9)
  %16 = getelementptr inbounds nuw %"struct.rocksdb::WriteEntry", ptr %8, i32 0, i32 1
  %17 = call noundef i32 @_ZNK7rocksdb25WriteBatchEntryComparator10CompareKeyEjRKNS_5SliceES3_(ptr noundef nonnull align 8 dereferenceable(40) %13, i32 noundef %14, ptr noundef nonnull align 8 dereferenceable(16) %15, ptr noundef nonnull align 8 dereferenceable(16) %16)
  %18 = icmp eq i32 %17, 0
  store i1 %18, ptr %4, align 1
  call void @llvm.lifetime.end.p0(i64 40, ptr %8) #4
  br label %20

19:                                               ; preds = %3
  store i1 false, ptr %4, align 1
  br label %20

20:                                               ; preds = %19, %11
  %21 = load i1, ptr %4, align 1
  ret i1 %21
}