; Function Attrs: mustprogress uwtable
define noundef zeroext i1 @_ZN7rocksdb16WBWIIteratorImpl10MatchesKeyEjRKNS_5SliceE(ptr noundef nonnull readonly align 8 captures(none) dereferenceable(72) %0, i32 noundef %1, ptr noundef nonnull align 8 dereferenceable(16) %2) local_unnamed_addr #4 align 2 {
  %4 = alloca %"struct.rocksdb::WriteEntry", align 8
  %5 = getelementptr inbounds nuw i8, ptr %0, i64 64
  %6 = load i8, ptr %5, align 8, !tbaa !120, !range !91, !noundef !92
  %7 = trunc nuw i8 %6 to i1
  br i1 %7, label %_ZNK7rocksdb16WBWIIteratorImpl5ValidEv.exit.thread, label %8

8:                                                ; preds = %3
  %9 = getelementptr inbounds nuw i8, ptr %0, i64 24
  %10 = load ptr, ptr %9, align 8, !tbaa !129
  %.not5.i.i = icmp eq ptr %10, null
  br i1 %.not5.i.i, label %_ZNK7rocksdb16WBWIIteratorImpl5ValidEv.exit.thread, label %11

11:                                               ; preds = %8
  %12 = load ptr, ptr %10, align 8, !tbaa !130
  %.not.i.i = icmp eq ptr %12, null
  br i1 %.not.i.i, label %_ZNK7rocksdb16WBWIIteratorImpl5ValidEv.exit.thread, label %_ZNK7rocksdb16WBWIIteratorImpl5ValidEv.exit

_ZNK7rocksdb16WBWIIteratorImpl5ValidEv.exit:      ; preds = %11
  %13 = getelementptr inbounds nuw i8, ptr %12, i64 8
  %14 = load i32, ptr %13, align 8, !tbaa !132
  %15 = getelementptr inbounds nuw i8, ptr %0, i64 8
  %16 = load i32, ptr %15, align 8, !tbaa !134
  %17 = icmp eq i32 %14, %16
  br i1 %17, label %18, label %_ZNK7rocksdb16WBWIIteratorImpl5ValidEv.exit.thread

18:                                               ; preds = %_ZNK7rocksdb16WBWIIteratorImpl5ValidEv.exit
  %19 = getelementptr inbounds nuw i8, ptr %0, i64 40
  %20 = load ptr, ptr %19, align 8, !tbaa !164
  call void @llvm.lifetime.start.p0(i64 40, ptr nonnull %4) #25
  call void @_ZNK7rocksdb16WBWIIteratorImpl5EntryEv(ptr dead_on_unwind nonnull writable sret(%"struct.rocksdb::WriteEntry") align 8 %4, ptr noundef nonnull align 8 dereferenceable(72) %0)
  %21 = getelementptr inbounds nuw i8, ptr %4, i64 8
  %22 = zext i32 %1 to i64
  %23 = getelementptr inbounds nuw i8, ptr %20, i64 8
  %24 = getelementptr inbounds nuw i8, ptr %20, i64 16
  %25 = load ptr, ptr %24, align 8, !tbaa !165
  %26 = load ptr, ptr %23, align 8, !tbaa !168
  %27 = ptrtoint ptr %25 to i64
  %28 = ptrtoint ptr %26 to i64
  %29 = sub i64 %27, %28
  %30 = ashr exact i64 %29, 3
  %31 = icmp ugt i64 %30, %22
  br i1 %31, label %32, label %35

32:                                               ; preds = %18
  %33 = getelementptr inbounds nuw ptr, ptr %26, i64 %22
  %34 = load ptr, ptr %33, align 8, !tbaa !169
  %.not.i = icmp eq ptr %34, null
  br i1 %.not.i, label %35, label %_ZNK7rocksdb25WriteBatchEntryComparator10CompareKeyEjRKNS_5SliceES3_.exit

35:                                               ; preds = %32, %18
  %36 = load ptr, ptr %20, align 8, !tbaa !303
  br label %_ZNK7rocksdb25WriteBatchEntryComparator10CompareKeyEjRKNS_5SliceES3_.exit

_ZNK7rocksdb25WriteBatchEntryComparator10CompareKeyEjRKNS_5SliceES3_.exit: ; preds = %32, %35
  %.sink12.i = phi ptr [ %36, %35 ], [ %34, %32 ]
  %37 = load ptr, ptr %.sink12.i, align 8, !tbaa !18
  %38 = getelementptr inbounds nuw i8, ptr %37, i64 232
  %39 = load ptr, ptr %38, align 8
  %40 = call noundef i32 %39(ptr noundef nonnull align 8 dereferenceable(48) %.sink12.i, ptr noundef nonnull align 8 dereferenceable(16) %2, i1 noundef zeroext false, ptr noundef nonnull align 8 dereferenceable(16) %21, i1 noundef zeroext false)
  %41 = icmp eq i32 %40, 0
  call void @llvm.lifetime.end.p0(i64 40, ptr nonnull %4) #25
  br label %_ZNK7rocksdb16WBWIIteratorImpl5ValidEv.exit.thread

_ZNK7rocksdb16WBWIIteratorImpl5ValidEv.exit.thread: ; preds = %11, %8, %3, %_ZNK7rocksdb16WBWIIteratorImpl5ValidEv.exit, %_ZNK7rocksdb25WriteBatchEntryComparator10CompareKeyEjRKNS_5SliceES3_.exit
  %.0 = phi i1 [ %41, %_ZNK7rocksdb25WriteBatchEntryComparator10CompareKeyEjRKNS_5SliceES3_.exit ], [ false, %_ZNK7rocksdb16WBWIIteratorImpl5ValidEv.exit ], [ false, %3 ], [ false, %8 ], [ false, %11 ]
  ret i1 %.0
}